; Function Attrs: nounwind sspstrong uwtable
define range(i32 0, 2) i32 @rsock_revlookup_flag(i64 noundef %0, ptr noundef writeonly captures(none) %1) local_unnamed_addr #0 {
  switch i64 %0, label %4 [
    i64 20, label %.sink.split
    i64 0, label %3
    i64 4, label %25
  ]

3:                                                ; preds = %2
  br label %.sink.split

4:                                                ; preds = %2
  %5 = and i64 %0, 255
  %6 = icmp eq i64 %5, 12
  br i1 %6, label %Check_Type.exit, label %7

7:                                                ; preds = %4
  %8 = icmp eq i64 %0, 0
  %9 = and i64 %0, 7
  %10 = icmp ne i64 %9, 0
  %11 = or i1 %8, %10
  br i1 %11, label %RB_SYMBOL_P.exit.thread9.i, label %RB_SYMBOL_P.exit.i, !prof !106

RB_SYMBOL_P.exit.i:                               ; preds = %7
  %12 = inttoptr i64 %0 to ptr
  %13 = load i64, ptr %12, align 8, !tbaa !77
  %14 = and i64 %13, 31
  %15 = icmp eq i64 %14, 20
  br i1 %15, label %Check_Type.exit, label %RB_SYMBOL_P.exit.thread9.i, !prof !107

RB_SYMBOL_P.exit.thread9.i:                       ; preds = %RB_SYMBOL_P.exit.i, %7
  tail call void @rb_unexpected_type(i64 noundef %0, i32 noundef 20) #26
  unreachable

Check_Type.exit:                                  ; preds = %4, %RB_SYMBOL_P.exit.i
  %16 = tail call i64 @rb_sym2id(i64 noundef %0) #19
  %17 = load i64, ptr @id_numeric, align 8, !tbaa !79
  %18 = icmp eq i64 %16, %17
  br i1 %18, label %.sink.split, label %19

19:                                               ; preds = %Check_Type.exit
  %20 = load i64, ptr @id_hostname, align 8, !tbaa !79
  %21 = icmp eq i64 %16, %20
  br i1 %21, label %.sink.split, label %22

22:                                               ; preds = %19
  %23 = load i64, ptr @rb_eArgError, align 8, !tbaa !79
  %24 = tail call ptr @rb_id2name(i64 noundef %16) #19
  tail call void (i64, ptr, ...) @rb_raise(i64 noundef %23, ptr noundef nonnull @.str, ptr noundef %24) #21
  unreachable

.sink.split:                                      ; preds = %19, %Check_Type.exit, %2, %3
  %.sink = phi i32 [ 1, %3 ], [ 0, %2 ], [ 1, %Check_Type.exit ], [ 0, %19 ]
  store i32 %.sink, ptr %1, align 4, !tbaa !6
  br label %25

25:                                               ; preds = %.sink.split, %2
  %.0 = phi i32 [ 0, %2 ], [ 1, %.sink.split ]
  ret i32 %.0
}